; ModuleID = 'source-C-CXX/27/170.c'
source_filename = "source-C-CXX/27/170.c"
target datalayout = "e-m:e-p270:32:32-p271:32:32-p272:64:64-i64:64-f80:128-n8:16:32:64-S128"
target triple = "x86_64-pc-linux-gnu"

@.str = private unnamed_addr constant [3 x i8] c"%c\00", align 1
@.str.1 = private unnamed_addr constant [4 x i8] c"%d,\00", align 1
@.str.2 = private unnamed_addr constant [3 x i8] c"%d\00", align 1

; Function Attrs: nofree nounwind sspstrong uwtable
define dso_local void @main() local_unnamed_addr #0 {
  %1 = alloca [1000 x i8], align 16
  %2 = alloca [300 x i32], align 16
  %3 = bitcast [300 x i32]* %2 to i8*
  %4 = getelementptr inbounds [1000 x i8], [1000 x i8]* %1, i64 0, i64 0
  call void @llvm.lifetime.start.p0i8(i64 1000, i8* nonnull %4) #4
  call void @llvm.lifetime.start.p0i8(i64 1200, i8* nonnull %3) #4
  %5 = call i32 (i8*, ...) @__isoc99_scanf(i8* getelementptr inbounds ([3 x i8], [3 x i8]* @.str, i64 0, i64 0), i8* nonnull %4)
  %6 = load i8, i8* %4, align 16, !tbaa !5
  %7 = icmp eq i8 %6, 10
  br i1 %7, label %8, label %9

8:                                                ; preds = %0
  call void @llvm.memset.p0i8.i64(i8* noundef nonnull align 16 dereferenceable(1200) %3, i8 0, i64 1200, i1 false)
  br label %55

9:                                                ; preds = %0, %9
  %10 = phi i64 [ %13, %9 ], [ 0, %0 ]
  %11 = phi i32 [ %12, %9 ], [ 0, %0 ]
  %12 = add nuw nsw i32 %11, 1
  %13 = add nuw i64 %10, 1
  %14 = getelementptr inbounds [1000 x i8], [1000 x i8]* %1, i64 0, i64 %13
  %15 = call i32 (i8*, ...) @__isoc99_scanf(i8* getelementptr inbounds ([3 x i8], [3 x i8]* @.str, i64 0, i64 0), i8* nonnull %14)
  %16 = load i8, i8* %14, align 1, !tbaa !5
  %17 = icmp eq i8 %16, 10
  br i1 %17, label %18, label %9

18:                                               ; preds = %9
  call void @llvm.memset.p0i8.i64(i8* noundef nonnull align 16 dereferenceable(1200) %3, i8 0, i64 1200, i1 false)
  %19 = zext i32 %12 to i64
  br label %25

20:                                               ; preds = %41
  %21 = icmp sgt i32 %42, 1
  br i1 %21, label %22, label %55

22:                                               ; preds = %20
  %23 = add nsw i32 %42, -1
  %24 = zext i32 %23 to i64
  br label %46

25:                                               ; preds = %18, %41
  %26 = phi i64 [ 0, %18 ], [ %44, %41 ]
  %27 = phi i32 [ 0, %18 ], [ %43, %41 ]
  %28 = phi i32 [ 0, %18 ], [ %42, %41 ]
  %29 = getelementptr inbounds [1000 x i8], [1000 x i8]* %1, i64 0, i64 %26
  %30 = load i8, i8* %29, align 1, !tbaa !5
  %31 = icmp eq i8 %30, 32
  br i1 %31, label %41, label %32

32:                                               ; preds = %25
  %33 = icmp eq i32 %27, 0
  %34 = zext i1 %33 to i32
  %35 = add nsw i32 %28, %34
  %36 = add nsw i32 %35, -1
  %37 = sext i32 %36 to i64
  %38 = getelementptr inbounds [300 x i32], [300 x i32]* %2, i64 0, i64 %37
  %39 = load i32, i32* %38, align 4, !tbaa !8
  %40 = add nsw i32 %39, 1
  store i32 %40, i32* %38, align 4, !tbaa !8
  br label %41

41:                                               ; preds = %25, %32
  %42 = phi i32 [ %35, %32 ], [ %28, %25 ]
  %43 = phi i32 [ 1, %32 ], [ 0, %25 ]
  %44 = add nuw nsw i64 %26, 1
  %45 = icmp eq i64 %44, %19
  br i1 %45, label %20, label %25, !llvm.loop !10

46:                                               ; preds = %22, %46
  %47 = phi i64 [ 0, %22 ], [ %51, %46 ]
  %48 = getelementptr inbounds [300 x i32], [300 x i32]* %2, i64 0, i64 %47
  %49 = load i32, i32* %48, align 4, !tbaa !8
  %50 = call i32 (i8*, ...) @printf(i8* nonnull dereferenceable(1) getelementptr inbounds ([4 x i8], [4 x i8]* @.str.1, i64 0, i64 0), i32 %49)
  %51 = add nuw nsw i64 %47, 1
  %52 = icmp eq i64 %51, %24
  br i1 %52, label %53, label %46, !llvm.loop !12

53:                                               ; preds = %46
  %54 = zext i32 %23 to i64
  br label %55

55:                                               ; preds = %20, %8, %53
  %56 = phi i64 [ %54, %53 ], [ 0, %8 ], [ 0, %20 ]
  %57 = getelementptr inbounds [300 x i32], [300 x i32]* %2, i64 0, i64 %56
  %58 = load i32, i32* %57, align 4, !tbaa !8
  %59 = call i32 (i8*, ...) @printf(i8* nonnull dereferenceable(1) getelementptr inbounds ([3 x i8], [3 x i8]* @.str.2, i64 0, i64 0), i32 %58)
  call void @llvm.lifetime.end.p0i8(i64 1200, i8* nonnull %3) #4
  call void @llvm.lifetime.end.p0i8(i64 1000, i8* nonnull %4) #4
  ret void
}

; Function Attrs: argmemonly mustprogress nofree nosync nounwind willreturn
declare void @llvm.lifetime.start.p0i8(i64 immarg, i8* nocapture) #1

; Function Attrs: nofree nounwind
declare noundef i32 @__isoc99_scanf(i8* nocapture noundef readonly, ...) local_unnamed_addr #2

; Function Attrs: nofree nounwind
declare noundef i32 @printf(i8* nocapture noundef readonly, ...) local_unnamed_addr #2

; Function Attrs: argmemonly mustprogress nofree nosync nounwind willreturn
declare void @llvm.lifetime.end.p0i8(i64 immarg, i8* nocapture) #1

; Function Attrs: argmemonly nofree nounwind willreturn writeonly
declare void @llvm.memset.p0i8.i64(i8* nocapture writeonly, i8, i64, i1 immarg) #3


!llvm.module.flags = !{!0, !1, !2, !3}
!llvm.ident = !{!4}

!0 = !{i32 1, !"wchar_size", i32 4}
!1 = !{i32 7, !"PIC Level", i32 2}
!2 = !{i32 7, !"PIE Level", i32 2}
!3 = !{i32 7, !"uwtable", i32 1}
!4 = !{!"clang version 13.0.0"}
!5 = !{!6, !6, i64 0}
!6 = !{!"omnipotent char", !7, i64 0}
!7 = !{!"Simple C/C++ TBAA"}
!8 = !{!9, !9, i64 0}
!9 = !{!"int", !6, i64 0}
!10 = distinct !{!10, !11}
!11 = !{!"llvm.loop.mustprogress"}
!12 = distinct !{!12, !11}
